; ModuleID = '10/1228.c'
source_filename = "10/1228.c"
target datalayout = "e-m:e-p270:32:32-p271:32:32-p272:64:64-i64:64-f80:128-n8:16:32:64-S128"
target triple = "x86_64-pc-linux-gnu"

@.str = private unnamed_addr constant [3 x i8] c"%d\00", align 1

; Function Attrs: noinline nounwind uwtable
define dso_local void @main() #0 {
  %1 = alloca i32, align 4
  %2 = alloca [25 x i32], align 16
  %3 = alloca [25 x i32], align 16
  %4 = alloca i32, align 4
  %5 = alloca i32, align 4
  %6 = alloca i32, align 4
  %7 = bitcast [25 x i32]* %3 to i8*
  call void @llvm.memset.p0i8.i64(i8* align 16 %7, i8 0, i64 100, i1 false)
  %8 = call i32 (i8*, ...) @__isoc99_scanf(i8* getelementptr inbounds ([3 x i8], [3 x i8]* @.str, i64 0, i64 0), i32* %1)
  store i32 0, i32* %5, align 4
  br label %9

9:                                                ; preds = %19, %0
  %10 = load i32, i32* %5, align 4
  %11 = load i32, i32* %1, align 4
  %12 = sub nsw i32 %11, 1
  %13 = icmp sle i32 %10, %12
  br i1 %13, label %14, label %22

14:                                               ; preds = %9
  %15 = load i32, i32* %5, align 4
  %16 = sext i32 %15 to i64
  %17 = getelementptr inbounds [25 x i32], [25 x i32]* %2, i64 0, i64 %16
  %18 = call i32 (i8*, ...) @__isoc99_scanf(i8* getelementptr inbounds ([3 x i8], [3 x i8]* @.str, i64 0, i64 0), i32* %17)
  br label %19

19:                                               ; preds = %14
  %20 = load i32, i32* %5, align 4
  %21 = add nsw i32 %20, 1
  store i32 %21, i32* %5, align 4
  br label %9

22:                                               ; preds = %9
  %23 = load i32, i32* %1, align 4
  %24 = sub nsw i32 %23, 1
  store i32 %24, i32* %5, align 4
  br label %25

25:                                               ; preds = %67, %22
  %26 = load i32, i32* %5, align 4
  %27 = icmp sge i32 %26, 0
  br i1 %27, label %28, label %70

28:                                               ; preds = %25
  store i32 0, i32* %4, align 4
  %29 = load i32, i32* %5, align 4
  store i32 %29, i32* %6, align 4
  br label %30

30:                                               ; preds = %58, %28
  %31 = load i32, i32* %6, align 4
  %32 = load i32, i32* %1, align 4
  %33 = sub nsw i32 %32, 1
  %34 = icmp sle i32 %31, %33
  br i1 %34, label %35, label %61

35:                                               ; preds = %30
  %36 = load i32, i32* %5, align 4
  %37 = sext i32 %36 to i64
  %38 = getelementptr inbounds [25 x i32], [25 x i32]* %2, i64 0, i64 %37
  %39 = load i32, i32* %38, align 4
  %40 = load i32, i32* %6, align 4
  %41 = sext i32 %40 to i64
  %42 = getelementptr inbounds [25 x i32], [25 x i32]* %2, i64 0, i64 %41
  %43 = load i32, i32* %42, align 4
  %44 = icmp sge i32 %39, %43
  br i1 %44, label %45, label %57

45:                                               ; preds = %35
  %46 = load i32, i32* %4, align 4
  %47 = load i32, i32* %6, align 4
  %48 = sext i32 %47 to i64
  %49 = getelementptr inbounds [25 x i32], [25 x i32]* %3, i64 0, i64 %48
  %50 = load i32, i32* %49, align 4
  %51 = icmp sle i32 %46, %50
  br i1 %51, label %52, label %57

52:                                               ; preds = %45
  %53 = load i32, i32* %6, align 4
  %54 = sext i32 %53 to i64
  %55 = getelementptr inbounds [25 x i32], [25 x i32]* %3, i64 0, i64 %54
  %56 = load i32, i32* %55, align 4
  store i32 %56, i32* %4, align 4
  br label %57

57:                                               ; preds = %52, %45, %35
  br label %58

58:                                               ; preds = %57
  %59 = load i32, i32* %6, align 4
  %60 = add nsw i32 %59, 1
  store i32 %60, i32* %6, align 4
  br label %30

61:                                               ; preds = %30
  %62 = load i32, i32* %4, align 4
  %63 = add nsw i32 %62, 1
  %64 = load i32, i32* %5, align 4
  %65 = sext i32 %64 to i64
  %66 = getelementptr inbounds [25 x i32], [25 x i32]* %3, i64 0, i64 %65
  store i32 %63, i32* %66, align 4
  br label %67

67:                                               ; preds = %61
  %68 = load i32, i32* %5, align 4
  %69 = add nsw i32 %68, -1
  store i32 %69, i32* %5, align 4
  br label %25

70:                                               ; preds = %25
  %71 = getelementptr inbounds [25 x i32], [25 x i32]* %3, i64 0, i64 0
  %72 = load i32, i32* %71, align 16
  store i32 %72, i32* %4, align 4
  store i32 0, i32* %5, align 4
  br label %73

73:                                               ; preds = %91, %70
  %74 = load i32, i32* %5, align 4
  %75 = load i32, i32* %1, align 4
  %76 = sub nsw i32 %75, 1
  %77 = icmp sle i32 %74, %76
  br i1 %77, label %78, label %94

78:                                               ; preds = %73
  %79 = load i32, i32* %4, align 4
  %80 = load i32, i32* %5, align 4
  %81 = sext i32 %80 to i64
  %82 = getelementptr inbounds [25 x i32], [25 x i32]* %3, i64 0, i64 %81
  %83 = load i32, i32* %82, align 4
  %84 = icmp slt i32 %79, %83
  br i1 %84, label %85, label %90

85:                                               ; preds = %78
  %86 = load i32, i32* %5, align 4
  %87 = sext i32 %86 to i64
  %88 = getelementptr inbounds [25 x i32], [25 x i32]* %3, i64 0, i64 %87
  %89 = load i32, i32* %88, align 4
  store i32 %89, i32* %4, align 4
  br label %90

90:                                               ; preds = %85, %78
  br label %91

91:                                               ; preds = %90
  %92 = load i32, i32* %5, align 4
  %93 = add nsw i32 %92, 1
  store i32 %93, i32* %5, align 4
  br label %73

94:                                               ; preds = %73
  %95 = load i32, i32* %4, align 4
  %96 = call i32 (i8*, ...) @printf(i8* getelementptr inbounds ([3 x i8], [3 x i8]* @.str, i64 0, i64 0), i32 %95)
  ret void
}

; Function Attrs: argmemonly nounwind willreturn
declare void @llvm.memset.p0i8.i64(i8* nocapture writeonly, i8, i64, i1 immarg) #1

declare dso_local i32 @__isoc99_scanf(i8*, ...) #2

declare dso_local i32 @printf(i8*, ...) #2


!llvm.module.flags = !{!0}
!llvm.ident = !{!1}

!0 = !{i32 1, !"wchar_size", i32 4}
!1 = !{!"clang version 10.0.0-4ubuntu1 "}
